; Function Attrs: nounwind uwtable
define hidden void @zif_levenshtein(ptr noundef readonly captures(none) %0, ptr noundef writeonly captures(none) %1) local_unnamed_addr #0 {
  %3 = alloca ptr, align 8
  %4 = alloca ptr, align 8
  %5 = alloca i64, align 8
  %6 = alloca i64, align 8
  %7 = alloca i64, align 8
  call void @llvm.lifetime.start.p0(i64 8, ptr nonnull %3) #5
  call void @llvm.lifetime.start.p0(i64 8, ptr nonnull %4) #5
  call void @llvm.lifetime.start.p0(i64 8, ptr nonnull %5) #5
  store i64 1, ptr %5, align 8, !tbaa !4
  call void @llvm.lifetime.start.p0(i64 8, ptr nonnull %6) #5
  store i64 1, ptr %6, align 8, !tbaa !4
  call void @llvm.lifetime.start.p0(i64 8, ptr nonnull %7) #5
  store i64 1, ptr %7, align 8, !tbaa !4
  %8 = getelementptr inbounds nuw i8, ptr %0, i64 44
  %9 = load i32, ptr %8, align 4, !tbaa !8
  %10 = call i32 (i32, ptr, ...) @zend_parse_parameters(i32 noundef %9, ptr noundef nonnull @.str, ptr noundef nonnull %3, ptr noundef nonnull %4, ptr noundef nonnull %5, ptr noundef nonnull %6, ptr noundef nonnull %7) #5
  %11 = icmp eq i32 %10, -1
  br i1 %11, label %12, label %15

12:                                               ; preds = %2
  %13 = load ptr, ptr getelementptr inbounds nuw (i8, ptr @executor_globals, i64 960), align 8, !tbaa !9
  %14 = icmp ne ptr %13, null
  call void @llvm.assume(i1 %14)
  br label %82

15:                                               ; preds = %2
  %16 = load ptr, ptr %3, align 8, !tbaa !44
  %17 = load ptr, ptr %4, align 8, !tbaa !44
  %18 = load i64, ptr %5, align 8, !tbaa !4
  %19 = load i64, ptr %6, align 8, !tbaa !4
  %20 = load i64, ptr %7, align 8, !tbaa !4
  %21 = getelementptr inbounds nuw i8, ptr %16, i64 16
  %22 = load i64, ptr %21, align 8, !tbaa !45
  %23 = icmp eq i64 %22, 0
  %24 = getelementptr inbounds nuw i8, ptr %17, i64 16
  %25 = load i64, ptr %24, align 8, !tbaa !45
  br i1 %23, label %26, label %28

26:                                               ; preds = %15
  %27 = mul i64 %25, %18
  br label %reference_levdist.exit

28:                                               ; preds = %15
  %29 = icmp eq i64 %25, 0
  br i1 %29, label %30, label %32

30:                                               ; preds = %28
  %31 = mul i64 %22, %20
  br label %reference_levdist.exit

32:                                               ; preds = %28
  %33 = icmp ult i64 %22, %25
  %34 = icmp eq i64 %18, %19
  %or.cond.i = and i1 %34, %33
  %35 = icmp eq i64 %19, %20
  %or.cond77.i = and i1 %35, %or.cond.i
  %.066.i = select i1 %or.cond77.i, ptr %16, ptr %17
  %36 = getelementptr inbounds nuw i8, ptr %.066.i, i64 16
  %37 = load i64, ptr %36, align 8, !tbaa !45
  %38 = add i64 %37, 1
  %39 = call noalias ptr @_safe_emalloc(i64 noundef %38, i64 noundef 8, i64 noundef 0) #5
  %40 = load i64, ptr %36, align 8, !tbaa !45
  %41 = add i64 %40, 1
  %42 = call noalias ptr @_safe_emalloc(i64 noundef %41, i64 noundef 8, i64 noundef 0) #5
  %43 = load i64, ptr %36, align 8, !tbaa !45
  br label %48

.preheader.i:                                     ; preds = %48
  %.065.i = select i1 %or.cond77.i, ptr %17, ptr %16
  %44 = getelementptr inbounds nuw i8, ptr %.065.i, i64 16
  %45 = load i64, ptr %44, align 8, !tbaa !45
  %.not86.i = icmp eq i64 %45, 0
  br i1 %.not86.i, label %._crit_edge84.i, label %.lr.ph83.i

.lr.ph83.i:                                       ; preds = %.preheader.i
  %46 = getelementptr inbounds nuw i8, ptr %.065.i, i64 24
  %47 = getelementptr inbounds nuw i8, ptr %.066.i, i64 24
  %.pre.i = load i64, ptr %39, align 8, !tbaa !4
  br label %52

48:                                               ; preds = %48, %32
  %.06378.i = phi i64 [ 0, %32 ], [ %51, %48 ]
  %49 = mul i64 %.06378.i, %18
  %50 = getelementptr inbounds nuw i64, ptr %39, i64 %.06378.i
  store i64 %49, ptr %50, align 8, !tbaa !4
  %51 = add i64 %.06378.i, 1
  %.not.i = icmp ugt i64 %51, %43
  br i1 %.not.i, label %.preheader.i, label %48

52:                                               ; preds = %._crit_edge.i, %.lr.ph83.i
  %53 = phi i64 [ %.pre.i, %.lr.ph83.i ], [ %54, %._crit_edge.i ]
  %.06482.i = phi i64 [ 0, %.lr.ph83.i ], [ %75, %._crit_edge.i ]
  %.06981.i = phi ptr [ %39, %.lr.ph83.i ], [ %.07080.i, %._crit_edge.i ]
  %.07080.i = phi ptr [ %42, %.lr.ph83.i ], [ %.06981.i, %._crit_edge.i ]
  %54 = add nsw i64 %53, %20
  store i64 %54, ptr %.07080.i, align 8, !tbaa !4
  %55 = load i64, ptr %36, align 8, !tbaa !45
  %.not87.i = icmp eq i64 %55, 0
  br i1 %.not87.i, label %._crit_edge.i, label %.lr.ph.i

.lr.ph.i:                                         ; preds = %52
  %56 = getelementptr inbounds nuw [1 x i8], ptr %46, i64 0, i64 %.06482.i
  %.pre88.i = load i64, ptr %.06981.i, align 8, !tbaa !4
  br label %57

57:                                               ; preds = %57, %.lr.ph.i
  %58 = phi i64 [ %54, %.lr.ph.i ], [ %.168.i, %57 ]
  %59 = phi i64 [ %.pre88.i, %.lr.ph.i ], [ %68, %57 ]
  %.179.i = phi i64 [ 0, %.lr.ph.i ], [ %66, %57 ]
  %60 = load i8, ptr %56, align 1, !tbaa !8
  %61 = getelementptr inbounds nuw [1 x i8], ptr %47, i64 0, i64 %.179.i
  %62 = load i8, ptr %61, align 1, !tbaa !8
  %63 = icmp eq i8 %60, %62
  %64 = select i1 %63, i64 0, i64 %19
  %65 = add nsw i64 %64, %59
  %66 = add nuw i64 %.179.i, 1
  %67 = getelementptr inbounds nuw i64, ptr %.06981.i, i64 %66
  %68 = load i64, ptr %67, align 8, !tbaa !4
  %69 = add nsw i64 %68, %20
  %spec.select.i = call i64 @llvm.smin.i64(i64 %69, i64 %65)
  %70 = add nsw i64 %58, %18
  %.168.i = call i64 @llvm.smin.i64(i64 %70, i64 %spec.select.i)
  %71 = getelementptr inbounds nuw i64, ptr %.07080.i, i64 %66
  store i64 %.168.i, ptr %71, align 8, !tbaa !4
  %72 = load i64, ptr %36, align 8, !tbaa !45
  %73 = icmp ult i64 %66, %72
  br i1 %73, label %57, label %._crit_edge.i

._crit_edge.i:                                    ; preds = %57, %52
  %74 = phi i64 [ 0, %52 ], [ %72, %57 ]
  %75 = add nuw i64 %.06482.i, 1
  %76 = load i64, ptr %44, align 8, !tbaa !45
  %77 = icmp ult i64 %75, %76
  br i1 %77, label %52, label %._crit_edge84.i

._crit_edge84.i:                                  ; preds = %._crit_edge.i, %.preheader.i
  %78 = phi i64 [ %43, %.preheader.i ], [ %74, %._crit_edge.i ]
  %.070.lcssa.i = phi ptr [ %42, %.preheader.i ], [ %.06981.i, %._crit_edge.i ]
  %.069.lcssa.i = phi ptr [ %39, %.preheader.i ], [ %.07080.i, %._crit_edge.i ]
  %79 = getelementptr inbounds nuw i64, ptr %.069.lcssa.i, i64 %78
  %80 = load i64, ptr %79, align 8, !tbaa !4
  call void @_efree(ptr noundef nonnull %.069.lcssa.i) #5
  call void @_efree(ptr noundef %.070.lcssa.i) #5
  br label %reference_levdist.exit

reference_levdist.exit:                           ; preds = %26, %30, %._crit_edge84.i
  %.0.i = phi i64 [ %27, %26 ], [ %31, %30 ], [ %80, %._crit_edge84.i ]
  store i64 %.0.i, ptr %1, align 8, !tbaa !8
  %81 = getelementptr inbounds nuw i8, ptr %1, i64 8
  store i32 4, ptr %81, align 8, !tbaa !8
  br label %82

82:                                               ; preds = %reference_levdist.exit, %12
  call void @llvm.lifetime.end.p0(i64 8, ptr nonnull %7) #5
  call void @llvm.lifetime.end.p0(i64 8, ptr nonnull %6) #5
  call void @llvm.lifetime.end.p0(i64 8, ptr nonnull %5) #5
  call void @llvm.lifetime.end.p0(i64 8, ptr nonnull %4) #5
  call void @llvm.lifetime.end.p0(i64 8, ptr nonnull %3) #5
  ret void
}